target datalayout = "e-m:e-p270:32:32-p271:32:32-p272:64:64-i64:64-i128:128-f80:128-n8:16:32:64-S128"
target triple = "x86_64-unknown-linux-gnu"

%union.pthread_mutex_t = type { %struct.__pthread_mutex_s }
%struct.__pthread_mutex_s = type { i32, i32, i32, i32, i32, i16, i16, %struct.__pthread_internal_list }
%struct.__pthread_internal_list = type { ptr, ptr }

@mmap_lock_count = internal thread_local global i32 0, align 4
@mmap_mutex = internal global %union.pthread_mutex_t zeroinitializer, align 8
@.str = private unnamed_addr constant [20 x i8] c"mmap_lock_count > 0\00", align 1
@.str.1 = private unnamed_addr constant [26 x i8] c"../qemu/linux-user/mmap.c\00", align 1
@__PRETTY_FUNCTION__.mmap_unlock = private unnamed_addr constant [23 x i8] c"void mmap_unlock(void)\00", align 1
@reserved_va = external global i64, align 8
@guest_base = external global i64, align 8

; Function Attrs: nounwind sspstrong uwtable
define dso_local void @mmap_unlock() #0 {
entry:
  %0 = call align 4 ptr @llvm.threadlocal.address.p0(ptr align 4 @mmap_lock_count)
  %1 = load i32, ptr %0, align 4
  %cmp = icmp sgt i32 %1, 0
  br i1 %cmp, label %if.then, label %if.else

if.then:                                          ; preds = %entry
  br label %if.end

if.else:                                          ; preds = %entry
  call void @__assert_fail(ptr noundef @.str, ptr noundef @.str.1, i32 noundef 45, ptr noundef @__PRETTY_FUNCTION__.mmap_unlock) #9
  unreachable

if.end:                                           ; preds = %if.then
  %2 = call align 4 ptr @llvm.threadlocal.address.p0(ptr align 4 @mmap_lock_count)
  %3 = load i32, ptr %2, align 4
  %dec = add i32 %3, -1
  store i32 %dec, ptr %2, align 4
  %cmp1 = icmp eq i32 %dec, 0
  br i1 %cmp1, label %if.then2, label %if.end3

if.then2:                                         ; preds = %if.end
  %call = call i32 @pthread_mutex_unlock(ptr noundef @mmap_mutex) #8
  br label %if.end3

if.end3:                                          ; preds = %if.then2, %if.end
  ret void
}

; Function Attrs: nounwind sspstrong uwtable
define internal ptr @g2h_untagged(i64 noundef %x) #0 {
entry:
  %x.addr = alloca i64, align 8
  store i64 %x, ptr %x.addr, align 8
  %0 = load i64, ptr %x.addr, align 8
  %1 = load i64, ptr @guest_base, align 8
  %add = add i64 %0, %1
  %2 = inttoptr i64 %add to ptr
  ret ptr %2
}

; Function Attrs: nounwind sspstrong uwtable
define dso_local void @mmap_lock() #0 {
entry:
  %0 = call align 4 ptr @llvm.threadlocal.address.p0(ptr align 4 @mmap_lock_count)
  %1 = load i32, ptr %0, align 4
  %inc = add i32 %1, 1
  store i32 %inc, ptr %0, align 4
  %cmp = icmp eq i32 %1, 0
  br i1 %cmp, label %if.then, label %if.end

if.then:                                          ; preds = %entry
  %call = call i32 @pthread_mutex_lock(ptr noundef @mmap_mutex) #8
  br label %if.end

if.end:                                           ; preds = %if.then, %entry
  ret void
}

; Function Attrs: nounwind sspstrong uwtable
define internal zeroext i1 @guest_range_valid_untagged(i64 noundef %start, i64 noundef %len) #0 {
entry:
  %start.addr = alloca i64, align 8
  %len.addr = alloca i64, align 8
  store i64 %start, ptr %start.addr, align 8
  store i64 %len, ptr %len.addr, align 8
  %0 = load i64, ptr %len.addr, align 8
  %sub = sub i64 %0, 1
  %1 = load i64, ptr @reserved_va, align 8
  %tobool = icmp ne i64 %1, 0
  br i1 %tobool, label %cond.true, label %cond.false

cond.true:                                        ; preds = %entry
  br label %cond.end

cond.false:                                       ; preds = %entry
  br label %cond.end

cond.end:                                         ; preds = %cond.false, %cond.true
  %cond = phi i64 [ %1, %cond.true ], [ -1, %cond.false ]
  %cmp = icmp ule i64 %sub, %cond
  br i1 %cmp, label %land.rhs, label %land.end

land.rhs:                                         ; preds = %cond.end
  %2 = load i64, ptr %start.addr, align 8
  %3 = load i64, ptr @reserved_va, align 8
  %tobool1 = icmp ne i64 %3, 0
  br i1 %tobool1, label %cond.true2, label %cond.false3

cond.true2:                                       ; preds = %land.rhs
  br label %cond.end4

cond.false3:                                      ; preds = %land.rhs
  br label %cond.end4

cond.end4:                                        ; preds = %cond.false3, %cond.true2
  %cond5 = phi i64 [ %3, %cond.true2 ], [ -1, %cond.false3 ]
  %4 = load i64, ptr %len.addr, align 8
  %sub6 = sub i64 %cond5, %4
  %add = add i64 %sub6, 1
  %cmp7 = icmp ule i64 %2, %add
  br label %land.end

land.end:                                         ; preds = %cond.end4, %cond.end
  %5 = phi i1 [ false, %cond.end ], [ %cmp7, %cond.end4 ]
  ret i1 %5
}

; Function Attrs: nounwind sspstrong uwtable
define dso_local i64 @target_madvise(i64 noundef %start, i64 noundef %len_in, i32 noundef %advice) #0 {
entry:
  %retval = alloca i64, align 8
  %start.addr = alloca i64, align 8
  %len_in.addr = alloca i64, align 8
  %advice.addr = alloca i32, align 4
  %len = alloca i64, align 8
  %ret = alloca i32, align 4
  store i64 %start, ptr %start.addr, align 8
  store i64 %len_in, ptr %len_in.addr, align 8
  store i32 %advice, ptr %advice.addr, align 4
  store i32 0, ptr %ret, align 4
  %0 = load i64, ptr %start.addr, align 8
  %and = and i64 %0, 4095
  %tobool = icmp ne i64 %and, 0
  br i1 %tobool, label %if.then, label %if.end

if.then:                                          ; preds = %entry
  store i64 -22, ptr %retval, align 8
  br label %return

if.end:                                           ; preds = %entry
  %1 = load i64, ptr %len_in.addr, align 8
  %cmp = icmp eq i64 %1, 0
  br i1 %cmp, label %if.then1, label %if.end2

if.then1:                                         ; preds = %if.end
  store i64 0, ptr %retval, align 8
  br label %return

if.end2:                                          ; preds = %if.end
  %2 = load i64, ptr %len_in.addr, align 8
  %add = add i64 %2, 4096
  %sub = sub i64 %add, 1
  %and3 = and i64 %sub, -4096
  store i64 %and3, ptr %len, align 8
  %3 = load i64, ptr %len, align 8
  %cmp4 = icmp eq i64 %3, 0
  br i1 %cmp4, label %if.then5, label %lor.lhs.false

lor.lhs.false:                                    ; preds = %if.end2
  %4 = load i64, ptr %start.addr, align 8
  %5 = load i64, ptr %len, align 8
  %call = call zeroext i1 @guest_range_valid_untagged(i64 noundef %4, i64 noundef %5)
  br i1 %call, label %if.end6, label %if.then5

if.then5:                                         ; preds = %lor.lhs.false, %if.end2
  store i64 -22, ptr %retval, align 8
  br label %return

if.end6:                                          ; preds = %lor.lhs.false
  %6 = load i32, ptr %advice.addr, align 4
  switch i32 %6, label %sw.epilog [
    i32 4, label %sw.bb
    i32 18, label %sw.bb7
    i32 19, label %sw.bb8
  ]

sw.bb:                                            ; preds = %if.end6
  store i32 4, ptr %advice.addr, align 4
  br label %sw.epilog

sw.bb7:                                           ; preds = %if.end6
  store i32 18, ptr %advice.addr, align 4
  br label %sw.epilog

sw.bb8:                                           ; preds = %if.end6
  store i32 19, ptr %advice.addr, align 4
  br label %sw.epilog

sw.epilog:                                        ; preds = %sw.bb8, %sw.bb7, %sw.bb, %if.end6
  call void @mmap_lock()
  %7 = load i32, ptr %advice.addr, align 4
  switch i32 %7, label %sw.epilog26 [
    i32 18, label %sw.bb9
    i32 19, label %sw.bb9
    i32 4, label %sw.bb10
  ]

sw.bb9:                                           ; preds = %sw.epilog, %sw.epilog
  store i32 -22, ptr %ret, align 4
  br label %sw.bb10

sw.bb10:                                          ; preds = %sw.bb9, %sw.epilog
  %8 = load i64, ptr %start.addr, align 8
  %9 = load i64, ptr %len, align 8
  %call11 = call zeroext i1 @page_check_range(i64 noundef %8, i64 noundef %9, i32 noundef 2048)
  br i1 %call11, label %if.then12, label %if.end25

if.then12:                                        ; preds = %sw.bb10
  %10 = load i64, ptr %start.addr, align 8
  %call13 = call ptr @g2h_untagged(i64 noundef %10)
  %11 = load i64, ptr %len, align 8
  %12 = load i32, ptr %advice.addr, align 4
  %call14 = call i32 @madvise(ptr noundef %call13, i64 noundef %11, i32 noundef %12) #8
  %conv = sext i32 %call14 to i64
  %call15 = call i64 @get_errno(i64 noundef %conv)
  %conv16 = trunc i64 %call15 to i32
  store i32 %conv16, ptr %ret, align 4
  %13 = load i32, ptr %advice.addr, align 4
  %cmp17 = icmp eq i32 %13, 4
  br i1 %cmp17, label %land.lhs.true, label %if.end24

land.lhs.true:                                    ; preds = %if.then12
  %14 = load i32, ptr %ret, align 4
  %cmp19 = icmp eq i32 %14, 0
  br i1 %cmp19, label %if.then21, label %if.end24

if.then21:                                        ; preds = %land.lhs.true
  %15 = load i64, ptr %start.addr, align 8
  %16 = load i64, ptr %start.addr, align 8
  %17 = load i64, ptr %len, align 8
  %add22 = add i64 %16, %17
  %sub23 = sub i64 %add22, 1
  call void @page_reset_target_data(i64 noundef %15, i64 noundef %sub23)
  br label %if.end24

if.end24:                                         ; preds = %if.then21, %land.lhs.true, %if.then12
  br label %if.end25

if.end25:                                         ; preds = %if.end24, %sw.bb10
  br label %sw.epilog26

sw.epilog26:                                      ; preds = %if.end25, %sw.epilog
  call void @mmap_unlock()
  %18 = load i32, ptr %ret, align 4
  %conv27 = sext i32 %18 to i64
  store i64 %conv27, ptr %retval, align 8
  br label %return

return:                                           ; preds = %sw.epilog26, %if.then5, %if.then1, %if.then
  %19 = load i64, ptr %retval, align 8
  ret i64 %19
}