; Function Attrs: nounwind sspstrong uwtable
define dso_local range(i64 -2147483648, 2147483648) i64 @target_madvise(i64 noundef %start, i64 noundef %len_in, i32 noundef %advice) local_unnamed_addr #0 {
entry:
  %and = and i64 %start, 4095
  %tobool.not = icmp eq i64 %and, 0
  br i1 %tobool.not, label %if.end, label %return

if.end:                                           ; preds = %entry
  %cmp = icmp eq i64 %len_in, 0
  br i1 %cmp, label %return, label %if.end2

if.end2:                                          ; preds = %if.end
  %sub = add i64 %len_in, 4095
  %and3 = and i64 %sub, -4096
  %cmp4 = icmp eq i64 %and3, 0
  br i1 %cmp4, label %return, label %lor.lhs.false

lor.lhs.false:                                    ; preds = %if.end2
  %sub.i = add i64 %and3, -1
  %0 = load i64, ptr @reserved_va, align 8
  %tobool.not.i = icmp eq i64 %0, 0
  %..i = select i1 %tobool.not.i, i64 -1, i64 %0
  %cmp.not.i = icmp ule i64 %sub.i, %..i
  %reass.sub = sub i64 %..i, %and3
  %add.i = add i64 %reass.sub, 1
  %cmp7.i = icmp ule i64 %start, %add.i
  %1 = and i1 %cmp.not.i, %cmp7.i
  br i1 %1, label %if.end6, label %return

if.end6:                                          ; preds = %lor.lhs.false
  %2 = tail call align 4 ptr @llvm.threadlocal.address.p0(ptr align 4 @mmap_lock_count)
  %3 = load i32, ptr %2, align 4
  %inc.i = add i32 %3, 1
  store i32 %inc.i, ptr %2, align 4
  %cmp.i = icmp eq i32 %3, 0
  br i1 %cmp.i, label %if.then.i, label %mmap_lock.exit

if.then.i:                                        ; preds = %if.end6
  %call.i = tail call i32 @pthread_mutex_lock(ptr noundef nonnull @mmap_mutex) #14
  br label %mmap_lock.exit

mmap_lock.exit:                                   ; preds = %if.end6, %if.then.i
  switch i32 %advice, label %sw.epilog26 [
    i32 18, label %sw.bb9
    i32 19, label %sw.bb9
    i32 4, label %sw.bb10
  ]

sw.bb9:                                           ; preds = %mmap_lock.exit, %mmap_lock.exit
  br label %sw.bb10

sw.bb10:                                          ; preds = %sw.bb9, %mmap_lock.exit
  %ret.1 = phi i64 [ 0, %mmap_lock.exit ], [ -22, %sw.bb9 ]
  %call11 = tail call zeroext i1 @page_check_range(i64 noundef %start, i64 noundef %and3, i32 noundef 2048) #14
  br i1 %call11, label %if.then12, label %sw.epilog26

if.then12:                                        ; preds = %sw.bb10
  %4 = load i64, ptr @guest_base, align 8
  %add.i15 = add i64 %4, %start
  %5 = inttoptr i64 %add.i15 to ptr
  %call14 = tail call i32 @madvise(ptr noundef %5, i64 noundef %and3, i32 noundef %advice) #14
  %conv = sext i32 %call14 to i64
  %call15 = tail call i64 @get_errno(i64 noundef %conv) #14
  %cmp17 = icmp eq i32 %advice, 4
  %6 = and i64 %call15, 4294967295
  %cmp19 = icmp eq i64 %6, 0
  %or.cond = select i1 %cmp17, i1 %cmp19, i1 false
  br i1 %or.cond, label %if.then21, label %sw.epilog26

if.then21:                                        ; preds = %if.then12
  %add22 = add i64 %start, -1
  %sub23 = add i64 %add22, %and3
  tail call void @page_reset_target_data(i64 noundef %start, i64 noundef %sub23) #14
  br label %sw.epilog26

sw.epilog26:                                      ; preds = %sw.bb10, %if.then21, %if.then12, %mmap_lock.exit
  %ret.0 = phi i64 [ 0, %mmap_lock.exit ], [ 0, %if.then21 ], [ %call15, %if.then12 ], [ %ret.1, %sw.bb10 ]
  %7 = load i32, ptr %2, align 4
  %cmp.i16 = icmp sgt i32 %7, 0
  br i1 %cmp.i16, label %if.end.i, label %if.else.i

if.else.i:                                        ; preds = %sw.epilog26
  tail call void @__assert_fail(ptr noundef nonnull @.str, ptr noundef nonnull @.str.1, i32 noundef 45, ptr noundef nonnull @__PRETTY_FUNCTION__.mmap_unlock) #15
  unreachable

if.end.i:                                         ; preds = %sw.epilog26
  %dec.i = add nsw i32 %7, -1
  store i32 %dec.i, ptr %2, align 4
  %cmp1.i = icmp eq i32 %dec.i, 0
  br i1 %cmp1.i, label %if.then2.i, label %mmap_unlock.exit

if.then2.i:                                       ; preds = %if.end.i
  %call.i17 = tail call i32 @pthread_mutex_unlock(ptr noundef nonnull @mmap_mutex) #14
  br label %mmap_unlock.exit

mmap_unlock.exit:                                 ; preds = %if.end.i, %if.then2.i
  %sext = shl i64 %ret.0, 32
  %conv27 = ashr exact i64 %sext, 32
  br label %return

return:                                           ; preds = %if.end2, %lor.lhs.false, %if.end, %entry, %mmap_unlock.exit
  %retval.0 = phi i64 [ %conv27, %mmap_unlock.exit ], [ -22, %entry ], [ 0, %if.end ], [ -22, %lor.lhs.false ], [ -22, %if.end2 ]
  ret i64 %retval.0
}